target datalayout = "e-m:e-p270:32:32-p271:32:32-p272:64:64-i64:64-i128:128-f80:128-n8:16:32:64-S128"
target triple = "x86_64-unknown-linux-gnu"

%"class.cvc5::internal::smt::ContextManager" = type <{ %"class.cvc5::internal::EnvObj", ptr, ptr, %"class.std::vector", i32, i8, [3 x i8] }>
%"class.cvc5::internal::EnvObj" = type { ptr, ptr }
%"class.std::vector" = type { %"struct.std::_Vector_base" }
%"struct.std::_Vector_base" = type { %"struct.std::_Vector_base<unsigned int, std::allocator<unsigned int>>::_Vector_impl" }
%"struct.std::_Vector_base<unsigned int, std::allocator<unsigned int>>::_Vector_impl" = type { %"struct.std::_Vector_base<unsigned int, std::allocator<unsigned int>>::_Vector_impl_data" }
%"struct.std::_Vector_base<unsigned int, std::allocator<unsigned int>>::_Vector_impl_data" = type { ptr, ptr, ptr }

; Function Attrs: mustprogress uwtable
define hidden void @_ZN4cvc58internal3smt14ContextManager4pushEv(ptr noundef nonnull align 8 dereferenceable(61) %this) #4 align 2 {
entry:
  %this.addr = alloca ptr, align 8
  store ptr %this, ptr %this.addr, align 8
  %this1 = load ptr, ptr %this.addr, align 8
  %call = call noundef ptr @_ZNK4cvc58internal6EnvObj11userContextEv(ptr noundef nonnull align 8 dereferenceable(16) %this1)
  call void @_ZN4cvc57context7Context4pushEv(ptr noundef nonnull align 8 dereferenceable(48) %call)
  %call2 = call noundef ptr @_ZNK4cvc58internal6EnvObj7contextEv(ptr noundef nonnull align 8 dereferenceable(16) %this1)
  call void @_ZN4cvc57context7Context4pushEv(ptr noundef nonnull align 8 dereferenceable(48) %call2)
  ret void
}

; Function Attrs: mustprogress uwtable
define hidden void @_ZN4cvc58internal3smt14ContextManager5setupEPNS1_9SmtDriverE(ptr noundef nonnull align 8 dereferenceable(61) %this, ptr noundef %smt) #4 align 2 {
entry:
  %this.addr = alloca ptr, align 8
  %smt.addr = alloca ptr, align 8
  store ptr %this, ptr %this.addr, align 8
  store ptr %smt, ptr %smt.addr, align 8
  %this1 = load ptr, ptr %this.addr, align 8
  %0 = load ptr, ptr %smt.addr, align 8
  %d_smt = getelementptr inbounds %"class.cvc5::internal::smt::ContextManager", ptr %this1, i32 0, i32 2
  store ptr %0, ptr %d_smt, align 8
  call void @_ZN4cvc58internal3smt14ContextManager4pushEv(ptr noundef nonnull align 8 dereferenceable(61) %this1)
  ret void
}