; Function Attrs: mustprogress uwtable
define hidden void @_ZN4cvc58internal3smt14ContextManager5setupEPNS1_9SmtDriverE(ptr noundef nonnull align 8 dereferenceable(61) %this, ptr noundef %smt) local_unnamed_addr #3 align 2 {
entry:
  %d_smt = getelementptr inbounds i8, ptr %this, i64 24
  store ptr %smt, ptr %d_smt, align 8
  %call.i = tail call noundef ptr @_ZNK4cvc58internal6EnvObj11userContextEv(ptr noundef nonnull align 8 dereferenceable(16) %this)
  tail call void @_ZN4cvc57context7Context4pushEv(ptr noundef nonnull align 8 dereferenceable(48) %call.i)
  %call2.i = tail call noundef ptr @_ZNK4cvc58internal6EnvObj7contextEv(ptr noundef nonnull align 8 dereferenceable(16) %this)
  tail call void @_ZN4cvc57context7Context4pushEv(ptr noundef nonnull align 8 dereferenceable(48) %call2.i)
  ret void
}